; Function Attrs: mustprogress nounwind uwtable
define noundef zeroext i1 @_ZNK32pxrInternal_v0_24__pxrReserved__7TfTokeneqERKNSt7__cxx1112basic_stringIcSt11char_traitsIcESaIcEEE(ptr noundef nonnull readonly align 8 captures(none) dereferenceable(8) %0, ptr noundef nonnull align 8 dereferenceable(32) %1) local_unnamed_addr #1 align 2 personality ptr @__gxx_personality_v0 {
  %3 = load ptr, ptr %0, align 8
  %4 = ptrtoint ptr %3 to i64
  %5 = and i64 %4, -8
  %.not.i = icmp eq i64 %5, 0
  br i1 %.not.i, label %9, label %6

6:                                                ; preds = %2
  %7 = inttoptr i64 %5 to ptr
  %8 = getelementptr inbounds nuw i8, ptr %7, i64 16
  br label %_ZNK32pxrInternal_v0_24__pxrReserved__7TfToken9GetStringB5cxx11Ev.exit

9:                                                ; preds = %2
  %10 = load atomic i8, ptr @_ZGVZN32pxrInternal_v0_24__pxrReserved__7TfToken15_GetEmptyStringB5cxx11EvE5emptyB5cxx11 acquire, align 8
  %11 = icmp eq i8 %10, 0
  br i1 %11, label %12, label %_ZNK32pxrInternal_v0_24__pxrReserved__7TfToken9GetStringB5cxx11Ev.exit, !prof !8

12:                                               ; preds = %9
  %13 = tail call i32 @__cxa_guard_acquire(ptr nonnull @_ZGVZN32pxrInternal_v0_24__pxrReserved__7TfToken15_GetEmptyStringB5cxx11EvE5emptyB5cxx11) #14
  %.not.i.i = icmp eq i32 %13, 0
  br i1 %.not.i.i, label %_ZNK32pxrInternal_v0_24__pxrReserved__7TfToken9GetStringB5cxx11Ev.exit, label %14

14:                                               ; preds = %12
  tail call void @_ZNSt7__cxx1112basic_stringIcSt11char_traitsIcESaIcEEC1Ev(ptr noundef nonnull align 8 dereferenceable(32) @_ZZN32pxrInternal_v0_24__pxrReserved__7TfToken15_GetEmptyStringB5cxx11EvE5emptyB5cxx11) #14
  %15 = tail call i32 @__cxa_atexit(ptr nonnull @_ZNSt7__cxx1112basic_stringIcSt11char_traitsIcESaIcEED1Ev, ptr nonnull @_ZZN32pxrInternal_v0_24__pxrReserved__7TfToken15_GetEmptyStringB5cxx11EvE5emptyB5cxx11, ptr nonnull @__dso_handle) #14
  tail call void @__cxa_guard_release(ptr nonnull @_ZGVZN32pxrInternal_v0_24__pxrReserved__7TfToken15_GetEmptyStringB5cxx11EvE5emptyB5cxx11) #14
  br label %_ZNK32pxrInternal_v0_24__pxrReserved__7TfToken9GetStringB5cxx11Ev.exit

_ZNK32pxrInternal_v0_24__pxrReserved__7TfToken9GetStringB5cxx11Ev.exit: ; preds = %6, %9, %12, %14
  %16 = phi ptr [ %8, %6 ], [ @_ZZN32pxrInternal_v0_24__pxrReserved__7TfToken15_GetEmptyStringB5cxx11EvE5emptyB5cxx11, %9 ], [ @_ZZN32pxrInternal_v0_24__pxrReserved__7TfToken15_GetEmptyStringB5cxx11EvE5emptyB5cxx11, %12 ], [ @_ZZN32pxrInternal_v0_24__pxrReserved__7TfToken15_GetEmptyStringB5cxx11EvE5emptyB5cxx11, %14 ]
  %17 = tail call noundef i64 @_ZNKSt7__cxx1112basic_stringIcSt11char_traitsIcESaIcEE4sizeEv(ptr noundef nonnull align 8 dereferenceable(32) %16) #14
  %18 = tail call noundef i64 @_ZNKSt7__cxx1112basic_stringIcSt11char_traitsIcESaIcEE4sizeEv(ptr noundef nonnull align 8 dereferenceable(32) %1) #14
  %19 = icmp eq i64 %17, %18
  br i1 %19, label %20, label %_ZSteqIcEN9__gnu_cxx11__enable_ifIXsr9__is_charIT_EE7__valueEbE6__typeERKNSt7__cxx1112basic_stringIS2_St11char_traitsIS2_ESaIS2_EEESC_.exit

20:                                               ; preds = %_ZNK32pxrInternal_v0_24__pxrReserved__7TfToken9GetStringB5cxx11Ev.exit
  %21 = tail call noundef ptr @_ZNKSt7__cxx1112basic_stringIcSt11char_traitsIcESaIcEE4dataEv(ptr noundef nonnull align 8 dereferenceable(32) %16) #14
  %22 = tail call noundef ptr @_ZNKSt7__cxx1112basic_stringIcSt11char_traitsIcESaIcEE4dataEv(ptr noundef nonnull align 8 dereferenceable(32) %1) #14
  %23 = tail call noundef i64 @_ZNKSt7__cxx1112basic_stringIcSt11char_traitsIcESaIcEE4sizeEv(ptr noundef nonnull align 8 dereferenceable(32) %16) #14
  %24 = icmp eq i64 %23, 0
  br i1 %24, label %_ZSteqIcEN9__gnu_cxx11__enable_ifIXsr9__is_charIT_EE7__valueEbE6__typeERKNSt7__cxx1112basic_stringIS2_St11char_traitsIS2_ESaIS2_EEESC_.exit, label %25

25:                                               ; preds = %20
  %bcmp.i = tail call i32 @bcmp(ptr %21, ptr %22, i64 %23)
  %26 = icmp eq i32 %bcmp.i, 0
  br label %_ZSteqIcEN9__gnu_cxx11__enable_ifIXsr9__is_charIT_EE7__valueEbE6__typeERKNSt7__cxx1112basic_stringIS2_St11char_traitsIS2_ESaIS2_EEESC_.exit

_ZSteqIcEN9__gnu_cxx11__enable_ifIXsr9__is_charIT_EE7__valueEbE6__typeERKNSt7__cxx1112basic_stringIS2_St11char_traitsIS2_ESaIS2_EEESC_.exit: ; preds = %_ZNK32pxrInternal_v0_24__pxrReserved__7TfToken9GetStringB5cxx11Ev.exit, %20, %25
  %27 = phi i1 [ false, %_ZNK32pxrInternal_v0_24__pxrReserved__7TfToken9GetStringB5cxx11Ev.exit ], [ %26, %25 ], [ true, %20 ]
  ret i1 %27
}